target datalayout = "e-m:e-p270:32:32-p271:32:32-p272:64:64-i64:64-i128:128-f80:128-n8:16:32:64-S128"
target triple = "x86_64-unknown-linux-gnu"

@_ZTVN6icu_7514CurrencyFormatE = unnamed_addr constant { [10 x ptr] } { [10 x ptr] [ptr null, ptr @_ZTIN6icu_7514CurrencyFormatE, ptr @_ZN6icu_7514CurrencyFormatD1Ev, ptr @_ZN6icu_7514CurrencyFormatD0Ev, ptr @_ZNK6icu_7514CurrencyFormat17getDynamicClassIDEv, ptr @_ZNK6icu_7513MeasureFormateqERKNS_6FormatE, ptr @_ZNK6icu_7514CurrencyFormat5cloneEv, ptr @_ZNK6icu_7514CurrencyFormat6formatERKNS_11FormattableERNS_13UnicodeStringERNS_13FieldPositionER10UErrorCode, ptr @_ZNK6icu_756Format6formatERKNS_11FormattableERNS_13UnicodeStringEPNS_21FieldPositionIteratorER10UErrorCode, ptr @_ZNK6icu_7514CurrencyFormat11parseObjectERKNS_13UnicodeStringERNS_11FormattableERNS_13ParsePositionE] }, align 8
@_ZZN6icu_7514CurrencyFormat16getStaticClassIDEvE7classID = internal global i8 0, align 1
@_ZTVN10__cxxabiv120__si_class_type_infoE = external global [0 x ptr]
@_ZTSN6icu_7514CurrencyFormatE = constant [26 x i8] c"N6icu_7514CurrencyFormatE\00", align 1
@_ZTIN6icu_7513MeasureFormatE = external constant ptr
@_ZTIN6icu_7514CurrencyFormatE = constant { ptr, ptr, ptr } { ptr getelementptr inbounds (ptr, ptr @_ZTVN10__cxxabiv120__si_class_type_infoE, i64 2), ptr @_ZTSN6icu_7514CurrencyFormatE, ptr @_ZTIN6icu_7513MeasureFormatE }, align 8

@_ZN6icu_7514CurrencyFormatC1ERKNS_6LocaleER10UErrorCode = unnamed_addr alias void (ptr, ptr, ptr), ptr @_ZN6icu_7514CurrencyFormatC2ERKNS_6LocaleER10UErrorCode
@_ZN6icu_7514CurrencyFormatC1ERKS0_ = unnamed_addr alias void (ptr, ptr), ptr @_ZN6icu_7514CurrencyFormatC2ERKS0_
@_ZN6icu_7514CurrencyFormatD1Ev = unnamed_addr alias void (ptr), ptr @_ZN6icu_7514CurrencyFormatD2Ev

; Function Attrs: mustprogress uwtable
define void @_ZN6icu_7514CurrencyFormatC2ERKNS_6LocaleER10UErrorCode(ptr noundef nonnull align 8 dereferenceable(368) %this, ptr noundef nonnull align 8 dereferenceable(217) %locale, ptr noundef nonnull align 4 dereferenceable(4) %ec) unnamed_addr #0 align 2 {
entry:
  %this.addr = alloca ptr, align 8
  %locale.addr = alloca ptr, align 8
  %ec.addr = alloca ptr, align 8
  store ptr %this, ptr %this.addr, align 8
  store ptr %locale, ptr %locale.addr, align 8
  store ptr %ec, ptr %ec.addr, align 8
  %this1 = load ptr, ptr %this.addr, align 8
  %0 = load ptr, ptr %locale.addr, align 8
  %1 = load ptr, ptr %ec.addr, align 8
  call void @_ZN6icu_7513MeasureFormatC2ERKNS_6LocaleE19UMeasureFormatWidthR10UErrorCode(ptr noundef nonnull align 8 dereferenceable(368) %this1, ptr noundef nonnull align 8 dereferenceable(217) %0, i32 noundef 0, ptr noundef nonnull align 4 dereferenceable(4) %1)
  store ptr getelementptr inbounds ({ [10 x ptr] }, ptr @_ZTVN6icu_7514CurrencyFormatE, i32 0, i32 0, i32 2), ptr %this1, align 8
  ret void
}

declare void @_ZN6icu_7513MeasureFormatC2ERKNS_6LocaleE19UMeasureFormatWidthR10UErrorCode(ptr noundef nonnull align 8 dereferenceable(368), ptr noundef nonnull align 8 dereferenceable(217), i32 noundef, ptr noundef nonnull align 4 dereferenceable(4)) unnamed_addr #1

; Function Attrs: mustprogress uwtable
define void @_ZN6icu_7514CurrencyFormatC2ERKS0_(ptr noundef nonnull align 8 dereferenceable(368) %this, ptr noundef nonnull align 8 dereferenceable(368) %other) unnamed_addr #0 align 2 {
entry:
  %this.addr = alloca ptr, align 8
  %other.addr = alloca ptr, align 8
  store ptr %this, ptr %this.addr, align 8
  store ptr %other, ptr %other.addr, align 8
  %this1 = load ptr, ptr %this.addr, align 8
  %0 = load ptr, ptr %other.addr, align 8
  call void @_ZN6icu_7513MeasureFormatC2ERKS0_(ptr noundef nonnull align 8 dereferenceable(368) %this1, ptr noundef nonnull align 8 dereferenceable(368) %0)
  store ptr getelementptr inbounds ({ [10 x ptr] }, ptr @_ZTVN6icu_7514CurrencyFormatE, i32 0, i32 0, i32 2), ptr %this1, align 8
  ret void
}

declare void @_ZN6icu_7513MeasureFormatC2ERKS0_(ptr noundef nonnull align 8 dereferenceable(368), ptr noundef nonnull align 8 dereferenceable(368)) unnamed_addr #1

; Function Attrs: mustprogress nounwind uwtable
define void @_ZN6icu_7514CurrencyFormatD2Ev(ptr noundef nonnull align 8 dereferenceable(368) %this) unnamed_addr #2 align 2 {
entry:
  %this.addr = alloca ptr, align 8
  store ptr %this, ptr %this.addr, align 8
  %this1 = load ptr, ptr %this.addr, align 8
  call void @_ZN6icu_7513MeasureFormatD2Ev(ptr noundef nonnull align 8 dereferenceable(368) %this1) #4
  ret void
}

; Function Attrs: nounwind
declare void @_ZN6icu_7513MeasureFormatD2Ev(ptr noundef nonnull align 8 dereferenceable(368)) unnamed_addr #3

; Function Attrs: mustprogress nounwind uwtable
define void @_ZN6icu_7514CurrencyFormatD0Ev(ptr noundef nonnull align 8 dereferenceable(368) %this) unnamed_addr #2 align 2 {
entry:
  %this.addr = alloca ptr, align 8
  store ptr %this, ptr %this.addr, align 8
  %this1 = load ptr, ptr %this.addr, align 8
  call void @_ZN6icu_7514CurrencyFormatD1Ev(ptr noundef nonnull align 8 dereferenceable(368) %this1) #4
  call void @_ZN6icu_757UMemorydlEPv(ptr noundef %this1) #4
  ret void
}

; Function Attrs: nounwind
declare void @_ZN6icu_757UMemorydlEPv(ptr noundef) #3

; Function Attrs: mustprogress uwtable
define noundef ptr @_ZNK6icu_7514CurrencyFormat5cloneEv(ptr noundef nonnull align 8 dereferenceable(368) %this) unnamed_addr #0 align 2 personality ptr @__gxx_personality_v0 {
entry:
  %this.addr = alloca ptr, align 8
  %cleanup.cond = alloca i1, align 1
  %exn.slot = alloca ptr, align 8
  %ehselector.slot = alloca i32, align 4
  store ptr %this, ptr %this.addr, align 8
  %this1 = load ptr, ptr %this.addr, align 8
  %call = call noundef ptr @_ZN6icu_757UMemorynwEm(i64 noundef 368) #4
  %new.isnull = icmp eq ptr %call, null
  store i1 false, ptr %cleanup.cond, align 1
  br i1 %new.isnull, label %new.cont, label %new.notnull

new.notnull:                                      ; preds = %entry
  store i1 true, ptr %cleanup.cond, align 1
  invoke void @_ZN6icu_7514CurrencyFormatC1ERKS0_(ptr noundef nonnull align 8 dereferenceable(368) %call, ptr noundef nonnull align 8 dereferenceable(368) %this1)
          to label %invoke.cont unwind label %lpad

invoke.cont:                                      ; preds = %new.notnull
  br label %new.cont

new.cont:                                         ; preds = %invoke.cont, %entry
  %0 = phi ptr [ %call, %invoke.cont ], [ null, %entry ]
  ret ptr %0

lpad:                                             ; preds = %new.notnull
  %1 = landingpad { ptr, i32 }
          cleanup
  %2 = extractvalue { ptr, i32 } %1, 0
  store ptr %2, ptr %exn.slot, align 8
  %3 = extractvalue { ptr, i32 } %1, 1
  store i32 %3, ptr %ehselector.slot, align 4
  %cleanup.is_active = load i1, ptr %cleanup.cond, align 1
  br i1 %cleanup.is_active, label %cleanup.action, label %cleanup.done

cleanup.action:                                   ; preds = %lpad
  call void @_ZN6icu_757UMemorydlEPv(ptr noundef %call) #4
  br label %cleanup.done

cleanup.done:                                     ; preds = %cleanup.action, %lpad
  br label %eh.resume

eh.resume:                                        ; preds = %cleanup.done
  %exn = load ptr, ptr %exn.slot, align 8
  %sel = load i32, ptr %ehselector.slot, align 4
  %lpad.val = insertvalue { ptr, i32 } poison, ptr %exn, 0
  %lpad.val2 = insertvalue { ptr, i32 } %lpad.val, i32 %sel, 1
  resume { ptr, i32 } %lpad.val2
}

; Function Attrs: nounwind
declare noundef ptr @_ZN6icu_757UMemorynwEm(i64 noundef) #3

declare i32 @__gxx_personality_v0(...)

; Function Attrs: mustprogress uwtable
define noundef nonnull align 8 dereferenceable(64) ptr @_ZNK6icu_7514CurrencyFormat6formatERKNS_11FormattableERNS_13UnicodeStringERNS_13FieldPositionER10UErrorCode(ptr noundef nonnull align 8 dereferenceable(368) %this, ptr noundef nonnull align 8 dereferenceable(112) %obj, ptr noundef nonnull align 8 dereferenceable(64) %appendTo, ptr noundef nonnull align 8 dereferenceable(20) %pos, ptr noundef nonnull align 4 dereferenceable(4) %ec) unnamed_addr #0 align 2 {
entry:
  %this.addr = alloca ptr, align 8
  %obj.addr = alloca ptr, align 8
  %appendTo.addr = alloca ptr, align 8
  %pos.addr = alloca ptr, align 8
  %ec.addr = alloca ptr, align 8
  store ptr %this, ptr %this.addr, align 8
  store ptr %obj, ptr %obj.addr, align 8
  store ptr %appendTo, ptr %appendTo.addr, align 8
  store ptr %pos, ptr %pos.addr, align 8
  store ptr %ec, ptr %ec.addr, align 8
  %this1 = load ptr, ptr %this.addr, align 8
  %call = call noundef nonnull align 8 dereferenceable(356) ptr @_ZNK6icu_7513MeasureFormat25getCurrencyFormatInternalEv(ptr noundef nonnull align 8 dereferenceable(368) %this1)
  %0 = load ptr, ptr %obj.addr, align 8
  %1 = load ptr, ptr %appendTo.addr, align 8
  %2 = load ptr, ptr %pos.addr, align 8
  %3 = load ptr, ptr %ec.addr, align 8
  %vtable = load ptr, ptr %call, align 8
  %vfn = getelementptr inbounds ptr, ptr %vtable, i64 5
  %4 = load ptr, ptr %vfn, align 8
  %call2 = call noundef nonnull align 8 dereferenceable(64) ptr %4(ptr noundef nonnull align 8 dereferenceable(356) %call, ptr noundef nonnull align 8 dereferenceable(112) %0, ptr noundef nonnull align 8 dereferenceable(64) %1, ptr noundef nonnull align 8 dereferenceable(20) %2, ptr noundef nonnull align 4 dereferenceable(4) %3)
  ret ptr %call2
}

declare noundef nonnull align 8 dereferenceable(356) ptr @_ZNK6icu_7513MeasureFormat25getCurrencyFormatInternalEv(ptr noundef nonnull align 8 dereferenceable(368)) #1

; Function Attrs: mustprogress uwtable
define void @_ZNK6icu_7514CurrencyFormat11parseObjectERKNS_13UnicodeStringERNS_11FormattableERNS_13ParsePositionE(ptr noundef nonnull align 8 dereferenceable(368) %this, ptr noundef nonnull align 8 dereferenceable(64) %source, ptr noundef nonnull align 8 dereferenceable(112) %result, ptr noundef nonnull align 8 dereferenceable(16) %pos) unnamed_addr #0 align 2 {
entry:
  %this.addr = alloca ptr, align 8
  %source.addr = alloca ptr, align 8
  %result.addr = alloca ptr, align 8
  %pos.addr = alloca ptr, align 8
  %currAmt = alloca ptr, align 8
  store ptr %this, ptr %this.addr, align 8
  store ptr %source, ptr %source.addr, align 8
  store ptr %result, ptr %result.addr, align 8
  store ptr %pos, ptr %pos.addr, align 8
  %this1 = load ptr, ptr %this.addr, align 8
  %call = call noundef nonnull align 8 dereferenceable(356) ptr @_ZNK6icu_7513MeasureFormat25getCurrencyFormatInternalEv(ptr noundef nonnull align 8 dereferenceable(368) %this1)
  %0 = load ptr, ptr %source.addr, align 8
  %1 = load ptr, ptr %pos.addr, align 8
  %vtable = load ptr, ptr %call, align 8
  %vfn = getelementptr inbounds ptr, ptr %vtable, i64 22
  %2 = load ptr, ptr %vfn, align 8
  %call2 = call noundef ptr %2(ptr noundef nonnull align 8 dereferenceable(356) %call, ptr noundef nonnull align 8 dereferenceable(64) %0, ptr noundef nonnull align 8 dereferenceable(16) %1)
  store ptr %call2, ptr %currAmt, align 8
  %3 = load ptr, ptr %currAmt, align 8
  %cmp = icmp ne ptr %3, null
  br i1 %cmp, label %if.then, label %if.end

if.then:                                          ; preds = %entry
  %4 = load ptr, ptr %result.addr, align 8
  %5 = load ptr, ptr %currAmt, align 8
  call void @_ZN6icu_7511Formattable11adoptObjectEPNS_7UObjectE(ptr noundef nonnull align 8 dereferenceable(112) %4, ptr noundef %5)
  br label %if.end

if.end:                                           ; preds = %if.then, %entry
  ret void
}

declare void @_ZN6icu_7511Formattable11adoptObjectEPNS_7UObjectE(ptr noundef nonnull align 8 dereferenceable(112), ptr noundef) #1

; Function Attrs: mustprogress nounwind uwtable
define noundef ptr @_ZN6icu_7514CurrencyFormat16getStaticClassIDEv() #2 align 2 {
entry:
  ret ptr @_ZZN6icu_7514CurrencyFormat16getStaticClassIDEvE7classID
}

; Function Attrs: mustprogress nounwind uwtable
define noundef ptr @_ZNK6icu_7514CurrencyFormat17getDynamicClassIDEv(ptr noundef nonnull align 8 dereferenceable(368) %this) unnamed_addr #2 align 2 {
entry:
  %this.addr = alloca ptr, align 8
  store ptr %this, ptr %this.addr, align 8
  %call = call noundef ptr @_ZN6icu_7514CurrencyFormat16getStaticClassIDEv()
  ret ptr %call
}

declare noundef zeroext i1 @_ZNK6icu_7513MeasureFormateqERKNS_6FormatE(ptr noundef nonnull align 8 dereferenceable(368), ptr noundef nonnull align 8 dereferenceable(322)) unnamed_addr #1

declare noundef nonnull align 8 dereferenceable(64) ptr @_ZNK6icu_756Format6formatERKNS_11FormattableERNS_13UnicodeStringEPNS_21FieldPositionIteratorER10UErrorCode(ptr noundef nonnull align 8 dereferenceable(322), ptr noundef nonnull align 8 dereferenceable(112), ptr noundef nonnull align 8 dereferenceable(64), ptr noundef, ptr noundef nonnull align 4 dereferenceable(4)) unnamed_addr #1


!llvm.module.flags = !{!0, !1, !2, !3}

!0 = !{i32 1, !"wchar_size", i32 4}
!1 = !{i32 8, !"PIC Level", i32 2}
!2 = !{i32 7, !"uwtable", i32 2}
!3 = !{i32 7, !"frame-pointer", i32 2}
