; ModuleID = 'bench/icu/original/currfmt.ll'
source_filename = "bench/icu/original/currfmt.ll"
target datalayout = "e-m:e-p270:32:32-p271:32:32-p272:64:64-i64:64-i128:128-f80:128-n8:16:32:64-S128"
target triple = "x86_64-unknown-linux-gnu"

@_ZTVN6icu_7514CurrencyFormatE = unnamed_addr constant { [10 x ptr] } { [10 x ptr] [ptr null, ptr @_ZTIN6icu_7514CurrencyFormatE, ptr @_ZN6icu_7514CurrencyFormatD1Ev, ptr @_ZN6icu_7514CurrencyFormatD0Ev, ptr @_ZNK6icu_7514CurrencyFormat17getDynamicClassIDEv, ptr @_ZNK6icu_7513MeasureFormateqERKNS_6FormatE, ptr @_ZNK6icu_7514CurrencyFormat5cloneEv, ptr @_ZNK6icu_7514CurrencyFormat6formatERKNS_11FormattableERNS_13UnicodeStringERNS_13FieldPositionER10UErrorCode, ptr @_ZNK6icu_756Format6formatERKNS_11FormattableERNS_13UnicodeStringEPNS_21FieldPositionIteratorER10UErrorCode, ptr @_ZNK6icu_7514CurrencyFormat11parseObjectERKNS_13UnicodeStringERNS_11FormattableERNS_13ParsePositionE] }, align 8
@_ZZN6icu_7514CurrencyFormat16getStaticClassIDEvE7classID = internal global i8 0, align 1
@_ZTVN10__cxxabiv120__si_class_type_infoE = external global [0 x ptr]
@_ZTSN6icu_7514CurrencyFormatE = constant [26 x i8] c"N6icu_7514CurrencyFormatE\00", align 1
@_ZTIN6icu_7513MeasureFormatE = external constant ptr
@_ZTIN6icu_7514CurrencyFormatE = constant { ptr, ptr, ptr } { ptr getelementptr inbounds (ptr, ptr @_ZTVN10__cxxabiv120__si_class_type_infoE, i64 2), ptr @_ZTSN6icu_7514CurrencyFormatE, ptr @_ZTIN6icu_7513MeasureFormatE }, align 8

@_ZN6icu_7514CurrencyFormatC1ERKNS_6LocaleER10UErrorCode = unnamed_addr alias void (ptr, ptr, ptr), ptr @_ZN6icu_7514CurrencyFormatC2ERKNS_6LocaleER10UErrorCode
@_ZN6icu_7514CurrencyFormatC1ERKS0_ = unnamed_addr alias void (ptr, ptr), ptr @_ZN6icu_7514CurrencyFormatC2ERKS0_
@_ZN6icu_7514CurrencyFormatD1Ev = unnamed_addr alias void (ptr), ptr @_ZN6icu_7514CurrencyFormatD2Ev

; Function Attrs: mustprogress uwtable
define void @_ZN6icu_7514CurrencyFormatC2ERKNS_6LocaleER10UErrorCode(ptr noundef nonnull align 8 dereferenceable(368) %this, ptr noundef nonnull align 8 dereferenceable(217) %locale, ptr noundef nonnull align 4 dereferenceable(4) %ec) unnamed_addr #0 align 2 {
entry:
  tail call void @_ZN6icu_7513MeasureFormatC2ERKNS_6LocaleE19UMeasureFormatWidthR10UErrorCode(ptr noundef nonnull align 8 dereferenceable(368) %this, ptr noundef nonnull align 8 dereferenceable(217) %locale, i32 noundef 0, ptr noundef nonnull align 4 dereferenceable(4) %ec)
  store ptr getelementptr inbounds ({ [10 x ptr] }, ptr @_ZTVN6icu_7514CurrencyFormatE, i64 0, i32 0, i64 2), ptr %this, align 8
  ret void
}

declare void @_ZN6icu_7513MeasureFormatC2ERKNS_6LocaleE19UMeasureFormatWidthR10UErrorCode(ptr noundef nonnull align 8 dereferenceable(368), ptr noundef nonnull align 8 dereferenceable(217), i32 noundef, ptr noundef nonnull align 4 dereferenceable(4)) unnamed_addr #1

; Function Attrs: mustprogress uwtable
define void @_ZN6icu_7514CurrencyFormatC2ERKS0_(ptr noundef nonnull align 8 dereferenceable(368) %this, ptr noundef nonnull align 8 dereferenceable(368) %other) unnamed_addr #0 align 2 {
entry:
  tail call void @_ZN6icu_7513MeasureFormatC2ERKS0_(ptr noundef nonnull align 8 dereferenceable(368) %this, ptr noundef nonnull align 8 dereferenceable(368) %other)
  store ptr getelementptr inbounds ({ [10 x ptr] }, ptr @_ZTVN6icu_7514CurrencyFormatE, i64 0, i32 0, i64 2), ptr %this, align 8
  ret void
}

declare void @_ZN6icu_7513MeasureFormatC2ERKS0_(ptr noundef nonnull align 8 dereferenceable(368), ptr noundef nonnull align 8 dereferenceable(368)) unnamed_addr #1

; Function Attrs: mustprogress nounwind uwtable
define void @_ZN6icu_7514CurrencyFormatD2Ev(ptr noundef nonnull align 8 dereferenceable(368) %this) unnamed_addr #2 align 2 {
entry:
  tail call void @_ZN6icu_7513MeasureFormatD2Ev(ptr noundef nonnull align 8 dereferenceable(368) %this) #5
  ret void
}

; Function Attrs: nounwind
declare void @_ZN6icu_7513MeasureFormatD2Ev(ptr noundef nonnull align 8 dereferenceable(368)) unnamed_addr #3

; Function Attrs: mustprogress nounwind uwtable
define void @_ZN6icu_7514CurrencyFormatD0Ev(ptr noundef nonnull align 8 dereferenceable(368) %this) unnamed_addr #2 align 2 {
entry:
  tail call void @_ZN6icu_7514CurrencyFormatD1Ev(ptr noundef nonnull align 8 dereferenceable(368) %this) #5
  tail call void @_ZN6icu_757UMemorydlEPv(ptr noundef nonnull %this) #5
  ret void
}

; Function Attrs: nounwind
declare void @_ZN6icu_757UMemorydlEPv(ptr noundef) local_unnamed_addr #3

; Function Attrs: mustprogress uwtable
define noundef ptr @_ZNK6icu_7514CurrencyFormat5cloneEv(ptr noundef nonnull align 8 dereferenceable(368) %this) unnamed_addr #0 align 2 personality ptr @__gxx_personality_v0 {
entry:
  %call = tail call noundef ptr @_ZN6icu_757UMemorynwEm(i64 noundef 368) #5
  %new.isnull = icmp eq ptr %call, null
  br i1 %new.isnull, label %new.cont, label %new.notnull

new.notnull:                                      ; preds = %entry
  invoke void @_ZN6icu_7514CurrencyFormatC1ERKS0_(ptr noundef nonnull align 8 dereferenceable(368) %call, ptr noundef nonnull align 8 dereferenceable(368) %this)
          to label %new.cont unwind label %lpad

new.cont:                                         ; preds = %new.notnull, %entry
  ret ptr %call

lpad:                                             ; preds = %new.notnull
  %0 = landingpad { ptr, i32 }
          cleanup
  tail call void @_ZN6icu_757UMemorydlEPv(ptr noundef nonnull %call) #5
  resume { ptr, i32 } %0
}

; Function Attrs: nounwind
declare noundef ptr @_ZN6icu_757UMemorynwEm(i64 noundef) local_unnamed_addr #3

declare i32 @__gxx_personality_v0(...)

; Function Attrs: mustprogress uwtable
define noundef nonnull align 8 dereferenceable(64) ptr @_ZNK6icu_7514CurrencyFormat6formatERKNS_11FormattableERNS_13UnicodeStringERNS_13FieldPositionER10UErrorCode(ptr noundef nonnull align 8 dereferenceable(368) %this, ptr noundef nonnull align 8 dereferenceable(112) %obj, ptr noundef nonnull align 8 dereferenceable(64) %appendTo, ptr noundef nonnull align 8 dereferenceable(20) %pos, ptr noundef nonnull align 4 dereferenceable(4) %ec) unnamed_addr #0 align 2 {
entry:
  %call = tail call noundef nonnull align 8 dereferenceable(356) ptr @_ZNK6icu_7513MeasureFormat25getCurrencyFormatInternalEv(ptr noundef nonnull align 8 dereferenceable(368) %this)
  %vtable = load ptr, ptr %call, align 8
  %vfn = getelementptr inbounds i8, ptr %vtable, i64 40
  %0 = load ptr, ptr %vfn, align 8
  %call2 = tail call noundef nonnull align 8 dereferenceable(64) ptr %0(ptr noundef nonnull align 8 dereferenceable(356) %call, ptr noundef nonnull align 8 dereferenceable(112) %obj, ptr noundef nonnull align 8 dereferenceable(64) %appendTo, ptr noundef nonnull align 8 dereferenceable(20) %pos, ptr noundef nonnull align 4 dereferenceable(4) %ec)
  ret ptr %call2
}

declare noundef nonnull align 8 dereferenceable(356) ptr @_ZNK6icu_7513MeasureFormat25getCurrencyFormatInternalEv(ptr noundef nonnull align 8 dereferenceable(368)) local_unnamed_addr #1

; Function Attrs: mustprogress uwtable
define void @_ZNK6icu_7514CurrencyFormat11parseObjectERKNS_13UnicodeStringERNS_11FormattableERNS_13ParsePositionE(ptr noundef nonnull align 8 dereferenceable(368) %this, ptr noundef nonnull align 8 dereferenceable(64) %source, ptr noundef nonnull align 8 dereferenceable(112) %result, ptr noundef nonnull align 8 dereferenceable(16) %pos) unnamed_addr #0 align 2 {
entry:
  %call = tail call noundef nonnull align 8 dereferenceable(356) ptr @_ZNK6icu_7513MeasureFormat25getCurrencyFormatInternalEv(ptr noundef nonnull align 8 dereferenceable(368) %this)
  %vtable = load ptr, ptr %call, align 8
  %vfn = getelementptr inbounds i8, ptr %vtable, i64 176
  %0 = load ptr, ptr %vfn, align 8
  %call2 = tail call noundef ptr %0(ptr noundef nonnull align 8 dereferenceable(356) %call, ptr noundef nonnull align 8 dereferenceable(64) %source, ptr noundef nonnull align 8 dereferenceable(16) %pos)
  %cmp.not = icmp eq ptr %call2, null
  br i1 %cmp.not, label %if.end, label %if.then

if.then:                                          ; preds = %entry
  tail call void @_ZN6icu_7511Formattable11adoptObjectEPNS_7UObjectE(ptr noundef nonnull align 8 dereferenceable(112) %result, ptr noundef nonnull %call2)
  br label %if.end

if.end:                                           ; preds = %if.then, %entry
  ret void
}

declare void @_ZN6icu_7511Formattable11adoptObjectEPNS_7UObjectE(ptr noundef nonnull align 8 dereferenceable(112), ptr noundef) local_unnamed_addr #1

; Function Attrs: mustprogress nofree norecurse nosync nounwind willreturn memory(none) uwtable
define noundef nonnull ptr @_ZN6icu_7514CurrencyFormat16getStaticClassIDEv() local_unnamed_addr #4 align 2 {
entry:
  ret ptr @_ZZN6icu_7514CurrencyFormat16getStaticClassIDEvE7classID
}

; Function Attrs: mustprogress nofree norecurse nosync nounwind willreturn memory(none) uwtable
define noundef nonnull ptr @_ZNK6icu_7514CurrencyFormat17getDynamicClassIDEv(ptr nocapture nonnull readnone align 8 %this) unnamed_addr #4 align 2 {
entry:
  ret ptr @_ZZN6icu_7514CurrencyFormat16getStaticClassIDEvE7classID
}

declare noundef zeroext i1 @_ZNK6icu_7513MeasureFormateqERKNS_6FormatE(ptr noundef nonnull align 8 dereferenceable(368), ptr noundef nonnull align 8 dereferenceable(322)) unnamed_addr #1

declare noundef nonnull align 8 dereferenceable(64) ptr @_ZNK6icu_756Format6formatERKNS_11FormattableERNS_13UnicodeStringEPNS_21FieldPositionIteratorER10UErrorCode(ptr noundef nonnull align 8 dereferenceable(322), ptr noundef nonnull align 8 dereferenceable(112), ptr noundef nonnull align 8 dereferenceable(64), ptr noundef, ptr noundef nonnull align 4 dereferenceable(4)) unnamed_addr #1


!llvm.module.flags = !{!0, !1, !2, !3}

!0 = !{i32 1, !"wchar_size", i32 4}
!1 = !{i32 8, !"PIC Level", i32 2}
!2 = !{i32 7, !"uwtable", i32 2}
!3 = !{i32 7, !"frame-pointer", i32 2}
